target datalayout = "e-m:e-p270:32:32-p271:32:32-p272:64:64-i64:64-i128:128-f80:128-n8:16:32:64-S128"
target triple = "x86_64-pc-linux-gnu"

%struct.expert_field = type { i32, i32 }

@hf_nfapi_n_srs_initial = internal global i32 0, align 4
@hf_nfapi_initial_number_of_resource_blocks = internal global i32 0, align 4
@ei_invalid_range = internal global %struct.expert_field zeroinitializer, align 4
@.str.2093 = private unnamed_addr constant [35 x i8] c"Invalid n srs initial value [0..1]\00", align 1
@.str.2094 = private unnamed_addr constant [57 x i8] c"Invalid initial number of resource blocks value [1..100]\00", align 1

; Function Attrs: nounwind uwtable
define internal void @dissect_ul_config_init_tx_params_rel8_value(ptr noundef %0, ptr noundef %1) #0 {
  %3 = alloca ptr, align 8
  %4 = alloca ptr, align 8
  %5 = alloca ptr, align 8
  %6 = alloca i32, align 4
  store ptr %0, ptr %3, align 8
  store ptr %1, ptr %4, align 8
  %7 = load ptr, ptr %3, align 8
  %8 = load i32, ptr @hf_nfapi_n_srs_initial, align 4
  %9 = call ptr @ptvcursor_add_ret_uint(ptr noundef %7, i32 noundef %8, i32 noundef 1, i32 noundef 0, ptr noundef %6)
  store ptr %9, ptr %5, align 8
  %10 = load i32, ptr %6, align 4
  %11 = icmp ugt i32 %10, 1
  br i1 %11, label %12, label %16

12:                                               ; preds = %2
  %13 = load ptr, ptr %4, align 8
  %14 = load ptr, ptr %5, align 8
  %15 = call ptr (ptr, ptr, ptr, ptr, ...) @expert_add_info_format(ptr noundef %13, ptr noundef %14, ptr noundef @ei_invalid_range, ptr noundef @.str.2093)
  br label %16

16:                                               ; preds = %12, %2
  %17 = load ptr, ptr %3, align 8
  %18 = load i32, ptr @hf_nfapi_initial_number_of_resource_blocks, align 4
  %19 = call ptr @ptvcursor_add_ret_uint(ptr noundef %17, i32 noundef %18, i32 noundef 1, i32 noundef 0, ptr noundef %6)
  store ptr %19, ptr %5, align 8
  %20 = load i32, ptr %6, align 4
  %21 = icmp uge i32 %20, 1
  br i1 %21, label %22, label %25

22:                                               ; preds = %16
  %23 = load i32, ptr %6, align 4
  %24 = icmp ule i32 %23, 100
  br i1 %24, label %29, label %25

25:                                               ; preds = %22, %16
  %26 = load ptr, ptr %4, align 8
  %27 = load ptr, ptr %5, align 8
  %28 = call ptr (ptr, ptr, ptr, ptr, ...) @expert_add_info_format(ptr noundef %26, ptr noundef %27, ptr noundef @ei_invalid_range, ptr noundef @.str.2094)
  br label %29

29:                                               ; preds = %25, %22
  ret void
}