; Function Attrs: nounwind uwtable
define internal void @dissect_ul_config_init_tx_params_rel8_value(ptr noundef %0, ptr noundef %1) #0 {
  %3 = alloca i32, align 4
  %4 = load i32, ptr @hf_nfapi_n_srs_initial, align 4
  %5 = call ptr @ptvcursor_add_ret_uint(ptr noundef %0, i32 noundef %4, i32 noundef 1, i32 noundef 0, ptr noundef nonnull %3) #7
  %6 = load i32, ptr %3, align 4
  %7 = icmp ugt i32 %6, 1
  br i1 %7, label %8, label %10

8:                                                ; preds = %2
  %9 = call ptr (ptr, ptr, ptr, ptr, ...) @expert_add_info_format(ptr noundef %1, ptr noundef %5, ptr noundef nonnull @ei_invalid_range, ptr noundef nonnull @.str.2093) #7
  br label %10

10:                                               ; preds = %8, %2
  %11 = load i32, ptr @hf_nfapi_initial_number_of_resource_blocks, align 4
  %12 = call ptr @ptvcursor_add_ret_uint(ptr noundef %0, i32 noundef %11, i32 noundef 1, i32 noundef 0, ptr noundef nonnull %3) #7
  %13 = load i32, ptr %3, align 4
  %14 = add i32 %13, -1
  %or.cond = icmp ult i32 %14, 100
  br i1 %or.cond, label %17, label %15

15:                                               ; preds = %10
  %16 = call ptr (ptr, ptr, ptr, ptr, ...) @expert_add_info_format(ptr noundef %1, ptr noundef %12, ptr noundef nonnull @ei_invalid_range, ptr noundef nonnull @.str.2094) #7
  br label %17

17:                                               ; preds = %10, %15
  ret void
}